#include <math.h>
#include <stdio.h>
#include <stdlib.h>
#include <string.h>
#include <iostream>
using namespace std;

int main()
{
	int n=0;
	cin>>n;
	int i=n,a[100]={0};
	int *p=NULL,b;
	p=a;
	while(i>0)
	{
		cin>>*p;
		p++;
		i--;
	}
	p=a;
	for(i=0;i<n/2;i++)//?
	{
		b=*(p+i);
		*(p+i)=*(p+n-i-1);
		*(p+n-i-1)=b;
	}
	i=n-1;
	cout<<*p;
	p++;
	while(i>0)
	{
		cout<<" "<<*p;
		p++;
		i--;
	}

	return 0;
}